; Function Attrs: mustprogress uwtable
define noundef nonnull align 8 dereferenceable(8) ptr @_ZN4cvc55modeslsERSoNS0_15FindSynthTargetE(ptr noundef nonnull returned align 8 dereferenceable(8) %0, i32 noundef %1) local_unnamed_addr #3 {
  switch i32 %1, label %13 [
    i32 0, label %3
    i32 1, label %5
    i32 2, label %7
    i32 3, label %9
    i32 4, label %11
  ]

3:                                                ; preds = %2
  %4 = tail call noundef nonnull align 8 dereferenceable(8) ptr @_ZSt16__ostream_insertIcSt11char_traitsIcEERSt13basic_ostreamIT_T0_ES6_PKS3_l(ptr noundef nonnull align 8 dereferenceable(8) %0, ptr noundef nonnull @.str.37, i64 noundef 4)
  br label %15

5:                                                ; preds = %2
  %6 = tail call noundef nonnull align 8 dereferenceable(8) ptr @_ZSt16__ostream_insertIcSt11char_traitsIcEERSt13basic_ostreamIT_T0_ES6_PKS3_l(ptr noundef nonnull align 8 dereferenceable(8) %0, ptr noundef nonnull @.str.38, i64 noundef 7)
  br label %15

7:                                                ; preds = %2
  %8 = tail call noundef nonnull align 8 dereferenceable(8) ptr @_ZSt16__ostream_insertIcSt11char_traitsIcEERSt13basic_ostreamIT_T0_ES6_PKS3_l(ptr noundef nonnull align 8 dereferenceable(8) %0, ptr noundef nonnull @.str.39, i64 noundef 15)
  br label %15

9:                                                ; preds = %2
  %10 = tail call noundef nonnull align 8 dereferenceable(8) ptr @_ZSt16__ostream_insertIcSt11char_traitsIcEERSt13basic_ostreamIT_T0_ES6_PKS3_l(ptr noundef nonnull align 8 dereferenceable(8) %0, ptr noundef nonnull @.str.40, i64 noundef 13)
  br label %15

11:                                               ; preds = %2
  %12 = tail call noundef nonnull align 8 dereferenceable(8) ptr @_ZSt16__ostream_insertIcSt11char_traitsIcEERSt13basic_ostreamIT_T0_ES6_PKS3_l(ptr noundef nonnull align 8 dereferenceable(8) %0, ptr noundef nonnull @.str.41, i64 noundef 5)
  br label %15

13:                                               ; preds = %2
  %14 = tail call noundef nonnull align 8 dereferenceable(8) ptr @_ZSt16__ostream_insertIcSt11char_traitsIcEERSt13basic_ostreamIT_T0_ES6_PKS3_l(ptr noundef nonnull align 8 dereferenceable(8) %0, ptr noundef nonnull @.str.19, i64 noundef 1)
  br label %15

15:                                               ; preds = %13, %11, %9, %7, %5, %3
  ret ptr %0
}